MPASM 5.66                           FIB.ASM   2-22-2016  21:49:54         PAGE  1


LOC  OBJECT CODE     LINE SOURCE TEXT
  VALUE

Warning[205]: Found directive in column 1. (LIST)
                      00001 LIST        p=16F84     ; ????????? ???? ????????????????
                      00002 #include <p16f84.inc>    
                      00001         LIST
                      00002 
                      00003 ;==========================================================================
                      00004 ; Build date : Feb 01 2016
                      00005 ;  MPASM PIC16F84 processor include
                      00006 ; 
                      00007 ;  (c) Copyright 1999-2016 Microchip Technology, All rights reserved
                      00008 ;==========================================================================
                      00009 
                      00207         LIST
                      00003 
Warning[205]: Found directive in column 1. (cblock)
                      00004 cblock  10h  ; ???? ???
  00000010            00005         R1
  00000011            00006         R2
  00000012            00007         R3
Warning[205]: Found directive in column 1. (ENDC)
                      00008 endc
                      00009 
Warning[205]: Found directive in column 1. (org)
                      00010 org 2100h
Warning[205]: Found directive in column 1. (de)
2100   000F           00011 de 0fh ;????? ?????????
Warning[205]: Found directive in column 1. (org)
                      00012 org 0
Warning[203]: Found opcode in column 1. (goto)
0000   2???           00013 goto Start
                      00014 
0001                  00015 EEPROM_WRITE
0001   1683           00016         bsf STATUS, RP0
Message[302]: Register in operand not in bank 0.  Ensure that bank bits are correct.
0002   1508           00017         bsf EECON1, WREN
0003   138B           00018         bcf INTCON,GIE  ; ?????????? ?????? ??????????.
0004   3055           00019         movlw 055h        ; ????????????
Message[302]: Register in operand not in bank 0.  Ensure that bank bits are correct.
0005   0089           00020         movwf EECON2      ; ?????????
0006   30AA           00021         movlw 0AAh        ; ??? ??????.
Message[302]: Register in operand not in bank 0.  Ensure that bank bits are correct.
0007   0089           00022         movwf EECON2      ; ----"----
Message[302]: Register in operand not in bank 0.  Ensure that bank bits are correct.
0008   1488           00023         bsf   EECON1,WR    ; ----"----
Message[302]: Register in operand not in bank 0.  Ensure that bank bits are correct.
0009   1888           00024         btfsc EECON1,WR ; ?????????, ??????????? ?? ??????
000A   2???           00025         goto $-1
000B   178B           00026         bsf INTCON,GIE ; ???????? ???? ?????????? ?? ????????? ?????? ? EEPROM.
Message[302]: Register in operand not in bank 0.  Ensure that bank bits are correct.
000C   1108           00027         bcf EECON1,WREN   
000D   1283           00028         bcf STATUS,RP0  ; ??????? ? ??????? ????.
Warning[203]: Found opcode in column 1. (return)
000E   0008           00029 return
MPASM 5.66                           FIB.ASM   2-22-2016  21:49:54         PAGE  2


LOC  OBJECT CODE     LINE SOURCE TEXT
  VALUE

                      00030 
000F                  00031 EEPROM_READ
000F   1683           00032         bsf STATUS, RP0
Message[302]: Register in operand not in bank 0.  Ensure that bank bits are correct.
0010   1408           00033         bsf EECON1, RD
0011   1283           00034         bcf STATUS, RP0
Warning[203]: Found opcode in column 1. (return)
0012   0008           00035 return
                      00036 
0013                  00037 Start
Warning[203]: Found opcode in column 1. (movlw)
0013   3000           00038 movlw 00h     ; ????????? ?? ?????? 0 ? EEPROM ???????????? ?? ????-?? ? R1
Warning[203]: Found opcode in column 1. (movwf)
0014   0089           00039 movwf EEADR
Warning[203]: Found opcode in column 1. (call)
0015   2???           00040 call EEPROM_READ
Warning[203]: Found opcode in column 1. (movf)
0016   0808           00041 movf EEDATA,W
Warning[203]: Found opcode in column 1. (movwf)
0017   0090           00042 movwf R1
Warning[203]: Found opcode in column 1. (movlw)
0018   3000           00043 movlw 00h 
Warning[203]: Found opcode in column 1. (movwf)
0019   0091           00044 movwf R2 ;r2 is the cycle counter
001A                  00045 cycle
001A   0811           00046         movf R2,0
001B   0092           00047         movwf R3
001C   0D92           00048         rlf R3,1; GRAY code: XGr=(X XOR (X SHL 1)) SHR 1
001D   0812           00049         movf R3,0
001E   0611           00050         xorwf R2,0
001F   0092           00051         movwf R3
0020   0C12           00052         rrf R3,0;? W ??? ???? ??? ??????? ???????? R2
0021   0088           00053         movwf EEDATA   
Message[305]: Using default destination of 1 (file).
0022   0A91           00054         incf R2
0023   0811           00055         movf R2,0      
0024   0089           00056         movwf EEADR    
0025   2???           00057         call EEPROM_WRITE
0026   0811           00058         movf R2,0
0027   0210           00059         subwf R1,0
0028   0092           00060         movwf R3
0029   0F92           00061         incfsz R3,1
Warning[203]: Found opcode in column 1. (goto)
002A   2???           00062 goto cycle
                      00063 
Warning[205]: Found directive in column 1. (end)
                      00064 end
MPASM 5.66                           FIB.ASM   2-22-2016  21:49:54         PAGE  3


SYMBOL TABLE
  LABEL                             VALUE 

C                                 00000000
DC                                00000001
EEADR                             00000009
EECON1                            00000088
EECON2                            00000089
EEDATA                            00000008
EEIE                              00000006
EEIF                              00000004
EEPROM_READ                       0000000F
EEPROM_WRITE                      00000001
F                                 00000001
FSR                               00000004
GIE                               00000007
INDF                              00000000
INTCON                            0000000B
INTE                              00000004
INTEDG                            00000006
INTF                              00000001
IRP                               00000007
NOT_PD                            00000003
NOT_RBPU                          00000007
NOT_TO                            00000004
OPTION_REG                        00000081
PCL                               00000002
PCLATH                            0000000A
PORTA                             00000005
PORTB                             00000006
PS0                               00000000
PS1                               00000001
PS2                               00000002
PSA                               00000003
R1                                00000010
R2                                00000011
R3                                00000012
RA0                               00000000
RA1                               00000001
RA2                               00000002
RA3                               00000003
RA4                               00000004
RB0                               00000000
RB1                               00000001
RB2                               00000002
RB3                               00000003
RB4                               00000004
RB5                               00000005
RB6                               00000006
RB7                               00000007
RBIE                              00000003
RBIF                              00000000
RD                                00000000
RP0                               00000005
RP1                               00000006
STATUS                            00000003
MPASM 5.66                           FIB.ASM   2-22-2016  21:49:54         PAGE  4


SYMBOL TABLE
  LABEL                             VALUE 

Start                             00000013
T0CS                              00000005
T0IE                              00000005
T0IF                              00000002
T0SE                              00000004
TMR0                              00000001
TMR0IE                            00000005
TMR0IF                            00000002
TRISA                             00000085
TRISA0                            00000000
TRISA1                            00000001
TRISA2                            00000002
TRISA3                            00000003
TRISA4                            00000004
TRISB                             00000086
TRISB0                            00000000
TRISB1                            00000001
TRISB2                            00000002
TRISB3                            00000003
TRISB4                            00000004
TRISB5                            00000005
TRISB6                            00000006
TRISB7                            00000007
W                                 00000000
WR                                00000001
WREN                              00000002
WRERR                             00000003
Z                                 00000002
_.org_1_000A                      0000000A
_CONFIG                           00002007
_CP_OFF                           00003FFF
_CP_ON                            0000000F
_FOSC_EXTRC                       00003FFF
_FOSC_HS                          00003FFE
_FOSC_LP                          00003FFC
_FOSC_XT                          00003FFD
_HS_OSC                           00003FFE
_IDLOC0                           00002000
_IDLOC1                           00002001
_IDLOC2                           00002002
_IDLOC3                           00002003
_LP_OSC                           00003FFC
_PWRTE_OFF                        00003FFF
_PWRTE_ON                         00003FF7
_RC_OSC                           00003FFF
_WDTE_OFF                         00003FFB
_WDTE_ON                          00003FFF
_WDT_OFF                          00003FFB
_WDT_ON                           00003FFF
_XT_OSC                           00003FFD
__16F84                           00000001
__DEBUG                           
__MPLAB_DEBUGGER_SIMULATOR        1
MPASM 5.66                           FIB.ASM   2-22-2016  21:49:54         PAGE  5


SYMBOL TABLE
  LABEL                             VALUE 

cycle                             0000001A

Errors   :     0
Warnings :    18 reported,     0 suppressed
Messages :     8 reported,     0 suppressed

