MPASM 5.66                           FIB.ASM   3-20-2016  20:04:53         PAGE  1


LOC  OBJECT CODE     LINE SOURCE TEXT
  VALUE

Warning[205]: Found directive in column 1. (LIST)
                      00001 LIST        p=16F84     ; –£—Å—Ç–∞–Ω–æ–≤–∫–∞ —Ç–∏–ø–∞ –º–∏–∫—Ä–æ–∫–æ–Ω—Ç—Ä–æ–ª–ª–µ—Ä–∞
                      00002 #include <p16f84.inc>    
                      00001         LIST
                      00002 
                      00003 ;==========================================================================
                      00004 ; Build date : Feb 01 2016
                      00005 ;  MPASM PIC16F84 processor include
                      00006 ; 
                      00007 ;  (c) Copyright 1999-2016 Microchip Technology, All rights reserved
                      00008 ;==========================================================================
                      00009 
                      00207         LIST
                      00003 
Warning[205]: Found directive in column 1. (cblock)
                      00004 cblock  10h  ; –ë–ª–æ–∫ –†–û–ù
  00000010            00005         R1
  00000011            00006         R2
  00000012            00007         R3
  00000013            00008         R4
  00000014            00009         R5
Warning[205]: Found directive in column 1. (ENDC)
                      00010 endc
                      00011 
Warning[205]: Found directive in column 1. (org)
                      00012 org 0
0000   2???           00013         goto    Start
                      00014 
0001                  00015 Wait
0001   30F9           00016         movlw   0xF9
0002   0091           00017         movwf   R2
0003                  00018 Waitloop
0003   0000           00019         nop
Message[305]: Using default destination of 1 (file).
0004   0B91           00020         decfsz  R2
0005   2???           00021         goto    Waitloop
0006   0008           00022         return
                      00023 
0007                  00024 Output
0007   0810           00025         movfw   R1
0008   0091           00026         movwf   R2      ; –ü–æ–º–µ—â–∞–µ–º –∑–Ω–∞—á–µ–Ω–∏–µ –≤ Reg2
0009   0D91           00027         rlf     R2, 1   ; –°–¥–≤–∏–≥
000A   0811           00028         movfw   R2      ; –ü–æ–º–µ—â–∞–µ–º –∑–Ω–∞—á–µ–Ω–∏–µ –∏–∑ Reg2 –≤ W
000B   390E           00029         andlw   0Eh     ; –ù–∞–∫–ª–∞–¥—ã–≤–∞–µ–º –º–∞—Å–∫—É (–¥–ª—è RA1-RA3)  
000C   0085           00030         movwf   PORTA   ; –ó–∞–ø–∏—Å—ã–≤–∞–µ–º —Ä–µ–∑—É–ª—å—Ç–∞—Ç –≤ PORTA
                      00031 
000D   0810           00032         movfw   R1
000E   0091           00033         movwf   R2      ; –ü–æ–º–µ—â–∞–µ–º –∑–Ω–∞—á–µ–Ω–∏–µ –≤ Reg2
000F   0C91           00034         rrf     R2, 1   ; –°–¥–≤–∏–≥
0010   0811           00035         movfw   R2      ; –ü–æ–º–µ—â–∞–µ–º –∑–Ω–∞—á–µ–Ω–∏–µ –∏–∑ Reg2 –≤ W
0011   393C           00036         andlw   3Ch     ; –ù–∞–∫–ª–∞–¥—ã–≤–∞–µ–º –º–∞—Å–∫—É (–¥–ª—è RB2-RB5)
0012   0086           00037         movwf   PORTB   ; –ó–∞–ø–∏—Å—ã–≤–∞–µ–º —Ä–µ–∑—É–ª—å—Ç–∞—Ç –≤ PORTB
0013   0008           00038         return
MPASM 5.66                           FIB.ASM   3-20-2016  20:04:53         PAGE  2


LOC  OBJECT CODE     LINE SOURCE TEXT
  VALUE

                      00039 
0014                  00040 Start
0014   1683           00041         bsf     STATUS,RP0
0015   0103           00042         clrw
Message[302]: Register in operand not in bank 0.  Ensure that bank bits are correct.
0016   0085           00043         movwf   TRISA   ; –û—á–∏—Å—Ç–∫–∞ —Ä–µ–≥–∏—Å—Ç—Ä–æ–≤ TRISA –∏ TRISB (—É—Å—Ç–∞–Ω–∞–≤–ª–∏–≤–∞–µ—Ç –
                            ø–æ—Ä—Ç—ã –¥–ª—è —Ä–∞–±–æ—Ç—ã –Ω–∞ Output)
Message[302]: Register in operand not in bank 0.  Ensure that bank bits are correct.
0017   0086           00044         movwf   TRISB
0018   1283           00045         bcf     STATUS,RP0
0019   0190           00046         clrf    R1
001A                  00047 Loop
001A   2???           00048         call    Output
001B   2???           00049         call    Wait
Message[305]: Using default destination of 1 (file).
001C   0A90           00050         incf    R1
001D   2???           00051         goto    Loop
Warning[205]: Found directive in column 1. (end)
                      00052 end
MPASM 5.66                           FIB.ASM   3-20-2016  20:04:53         PAGE  3


SYMBOL TABLE
  LABEL                             VALUE 

C                                 00000000
DC                                00000001
EEADR                             00000009
EECON1                            00000088
EECON2                            00000089
EEDATA                            00000008
EEIE                              00000006
EEIF                              00000004
F                                 00000001
FSR                               00000004
GIE                               00000007
INDF                              00000000
INTCON                            0000000B
INTE                              00000004
INTEDG                            00000006
INTF                              00000001
IRP                               00000007
Loop                              0000001A
NOT_PD                            00000003
NOT_RBPU                          00000007
NOT_TO                            00000004
OPTION_REG                        00000081
Output                            00000007
PCL                               00000002
PCLATH                            0000000A
PORTA                             00000005
PORTB                             00000006
PS0                               00000000
PS1                               00000001
PS2                               00000002
PSA                               00000003
R1                                00000010
R2                                00000011
R3                                00000012
R4                                00000013
R5                                00000014
RA0                               00000000
RA1                               00000001
RA2                               00000002
RA3                               00000003
RA4                               00000004
RB0                               00000000
RB1                               00000001
RB2                               00000002
RB3                               00000003
RB4                               00000004
RB5                               00000005
RB6                               00000006
RB7                               00000007
RBIE                              00000003
RBIF                              00000000
RD                                00000000
RP0                               00000005
MPASM 5.66                           FIB.ASM   3-20-2016  20:04:53         PAGE  4


SYMBOL TABLE
  LABEL                             VALUE 

RP1                               00000006
STATUS                            00000003
Start                             00000014
T0CS                              00000005
T0IE                              00000005
T0IF                              00000002
T0SE                              00000004
TMR0                              00000001
TMR0IE                            00000005
TMR0IF                            00000002
TRISA                             00000085
TRISA0                            00000000
TRISA1                            00000001
TRISA2                            00000002
TRISA3                            00000003
TRISA4                            00000004
TRISB                             00000086
TRISB0                            00000000
TRISB1                            00000001
TRISB2                            00000002
TRISB3                            00000003
TRISB4                            00000004
TRISB5                            00000005
TRISB6                            00000006
TRISB7                            00000007
W                                 00000000
WR                                00000001
WREN                              00000002
WRERR                             00000003
Wait                              00000001
Waitloop                          00000003
Z                                 00000002
_CONFIG                           00002007
_CP_OFF                           00003FFF
_CP_ON                            0000000F
_FOSC_EXTRC                       00003FFF
_FOSC_HS                          00003FFE
_FOSC_LP                          00003FFC
_FOSC_XT                          00003FFD
_HS_OSC                           00003FFE
_IDLOC0                           00002000
_IDLOC1                           00002001
_IDLOC2                           00002002
_IDLOC3                           00002003
_LP_OSC                           00003FFC
_PWRTE_OFF                        00003FFF
_PWRTE_ON                         00003FF7
_RC_OSC                           00003FFF
_WDTE_OFF                         00003FFB
_WDTE_ON                          00003FFF
_WDT_OFF                          00003FFB
_WDT_ON                           00003FFF
_XT_OSC                           00003FFD
MPASM 5.66                           FIB.ASM   3-20-2016  20:04:53         PAGE  5


SYMBOL TABLE
  LABEL                             VALUE 

__16F84                           00000001

Errors   :     0
Warnings :     5 reported,     0 suppressed
Messages :     4 reported,     0 suppressed

